(dp1
S'output'
p2
S"<type 'exceptions.IOError'> [Errno socket error] [Errno 61] Connection refused"
p3
sS'layer'
p4
S'/Users/Kaitaku/Documents/cs183/web2py/applications/mixin/controllers/default.py'
p5
sS'code'
p6
S'# -*- coding: utf-8 -*-\n# this file is released under public domain and you can use without limitations\n\n# -------------------------------------------------------------------------\n# This is a sample controller\n# - index is the default action of any application\n# - user is required for authentication and authorization\n# - download is for downloading files uploaded in the db (does streaming)\n# -------------------------------------------------------------------------\n\nfrom gluon.contrib.websocket_messaging import websocket_send\n\ndef index():\n    """\n    example action using the internationalization operator T and flash\n    rendered by views/default/index.html or views/generic.html\n\n    if you need a simple wiki simply replace the two lines below with:\n    return auth.wiki()\n    """\n    if (auth.is_logged_in()):\n        redirect(URL(\'home\'))\n    form = auth()\n    if response.title:\n        welcomemessage = "Welcome to %s" % response.title\n    else:\n        welcomemessage = "Welcome"\n    #if form.process().accepted:\n    #    redirect(URL(\'home\'))\n    return dict(message=T(welcomemessage), form=form)\n\n\ndef user():\n    # Chapter 09 Authorization\n    """\n    exposes:\n    http://..../[app]/default/user/login\n    http://..../[app]/default/user/logout\n    http://..../[app]/default/user/register\n    http://..../[app]/default/user/profile\n    http://..../[app]/default/user/retrieve_password\n    http://..../[app]/default/user/change_password\n    http://..../[app]/default/user/bulk_register\n    use @auth.requires_login()\n        @auth.requires_membership(\'group name\')\n        @auth.requires_permission(\'read\',\'table name\',record_id)\n    to decorate functions that need access control\n    also notice there is http://..../[app]/appadmin/manage/auth to allow administrator to manage users\n    """\n    return dict(form=auth())\n\n@auth.requires_login()\ndef home():\n    groups = db().select(db.auth_group.ALL, orderby=db.auth_group.role)\n    return dict(groups=groups)\n\n@auth.requires_login()\ndef musicroom():\n    users = db().select(db.auth_user.ALL, orderby=db.auth_user.id)\n    #friendlist = (LI("%(first_name)s" % auth.user))\n    friendlist = (LI(""))\n    #friendlist = (LI("%s" % users[0].first_name))\n    #friendlist = (LI("Start:"))\n    #images[0].title\n    #i = 0\n    for i in users:\n        #friendlist.append(LI("%s" % i.first_name))\n        friendlist += (LI("%s" % i.first_name))\n    #i = i + 1\n    return dict(message=T(\'%(first_name)s\\\'s music room\' % auth.user), friendlist=friendlist)\n    #return users\n\n@auth.requires_login()\ndef settings():\n    return dict(form=auth())\n\n@auth.requires_login()\ndef about():\n    return dict()\n\n@auth.requires_login()\ndef contact():\n    return dict()\n\n@auth.requires_login()\ndef mbrain():\n    return dict()\n\n@auth.requires_login()\ndef sdinay():\n    return dict()\n\n@auth.requires_login()\ndef ryanho():\n    # not working on time_created\n    messages = db(Chat).select(orderby=~Chat.time_created)\n    return dict(messages=messages)\n\n@auth.requires_login()\ndef jli306():\n    return dict()\n\n@auth.requires_login()\ndef katakeda():\n    return dict()\n\n@auth.requires_login()\ndef cdwheele():\n    return dict()\n\ndef new_message():\n    form = SQLFORM(db.chat)\n    # not working\n    #db(Chat).author=auth.user.first_name\n    messageSent = request.vars.your_message\n    if form.accepts(request, formname=None):\n        websocket_send(\'http://127.0.0.1:8888\', messageSent, \'mykey\', \'mygroup\')\n    elif form.errors:\n        return TABLE(*[TR(k, v) for k, v in form.errors.items()])\n    return (db)\n\n@cache.action()\ndef download():\n    """\n    allows downloading of uploaded files\n    http://..../[app]/default/download/[filename]\n    """\n    return response.download(request, db)\n\n\ndef call():\n    """\n    exposes services. for example:\n    http://..../[app]/default/call/jsonrpc\n    decorate with @services.jsonrpc the functions to expose\n    supports xml, json, xmlrpc, jsonrpc, amfrpc, rss, csv\n    """\n    return service()\n\nresponse._vars=response._caller(new_message)\n'
p7
sS'snapshot'
p8
(dp9
S'exception'
p10
(dp11
S'__getslice__'
p12
S"<method-wrapper '__getslice__' of exceptions.IOError object>"
p13
sS'__str__'
p14
S"<method-wrapper '__str__' of exceptions.IOError object>"
p15
sS'__reduce__'
p16
S'<built-in method __reduce__ of exceptions.IOError object>'
p17
sS'__dict__'
p18
S'{}'
p19
sS'__sizeof__'
p20
S'<built-in method __sizeof__ of exceptions.IOError object>'
p21
sS'__init__'
p22
S"<method-wrapper '__init__' of exceptions.IOError object>"
p23
sS'__setattr__'
p24
S"<method-wrapper '__setattr__' of exceptions.IOError object>"
p25
sS'__reduce_ex__'
p26
S'<built-in method __reduce_ex__ of exceptions.IOError object>'
p27
sS'__new__'
p28
S'<built-in method __new__ of type object>'
p29
sS'errno'
p30
S"'socket error'"
p31
sS'__format__'
p32
S'<built-in method __format__ of exceptions.IOError object>'
p33
sS'__class__'
p34
S"<type 'exceptions.IOError'>"
p35
sS'filename'
p36
S'None'
p37
sS'__doc__'
p38
S"'I/O operation failed.'"
p39
sS'__getitem__'
p40
S"<method-wrapper '__getitem__' of exceptions.IOError object>"
p41
sS'__setstate__'
p42
S'<built-in method __setstate__ of exceptions.IOError object>'
p43
sS'__getattribute__'
p44
S"<method-wrapper '__getattribute__' of exceptions.IOError object>"
p45
sS'args'
p46
S"('socket error', error(61, 'Connection refused'))"
p47
sS'__subclasshook__'
p48
S'<built-in method __subclasshook__ of type object>'
p49
sS'__unicode__'
p50
S'<built-in method __unicode__ of exceptions.IOError object>'
p51
sS'strerror'
p52
S"error(61, 'Connection refused')"
p53
sS'__delattr__'
p54
S"<method-wrapper '__delattr__' of exceptions.IOError object>"
p55
sS'__repr__'
p56
S"<method-wrapper '__repr__' of exceptions.IOError object>"
p57
sS'__hash__'
p58
S"<method-wrapper '__hash__' of exceptions.IOError object>"
p59
ssS'evalue'
p60
S'[Errno socket error] [Errno 61] Connection refused'
p61
sS'request'
p62
cgluon.html
XML_unpickle
p63
(S's\xbd\x81\x00\x00<div><table><tr><td style="font-weight:bold;vertical-align:top;">ajax</td><td style="vertical-align:top;">:</td><td><div>True</div></td></tr><tr><td style="font-weight:bold;vertical-align:top;">application</td><td style="vertical-align:top;">:</td><td><div>mixin</div></td></tr><tr><td style="font-weight:bold;vertical-align:top;">args</td><td style="vertical-align:top;">:</td><td><div><table></table></div></td></tr><tr><td style="font-weight:bold;vertical-align:top;">cid</td><td style="vertical-align:top;">:</td><td><div>None</div></td></tr><tr><td style="font-weight:bold;vertical-align:top;">client</td><td style="vertical-align:top;">:</td><td><div>127.0.0.1</div></td></tr><tr><td style="font-weight:bold;vertical-align:top;">controller</td><td style="vertical-align:top;">:</td><td><div>default</div></td></tr><tr><td style="font-weight:bold;vertical-align:top;">cookies</td><td style="vertical-align:top;">:</td><td><div><table><tr><td style="font-weight:bold;vertical-align:top;">session_id_admin</td><td style="vertical-align:top;">:</td><td><div>127.0.0.1-c832819b-3826-4292-b201-f0eeb4825558<table><tr><td style="font-weight:bold;vertical-align:top;">comment</td><td style="vertical-align:top;">:</td><td><div></div></td></tr><tr><td style="font-weight:bold;vertical-align:top;">domain</td><td style="vertical-align:top;">:</td><td><div></div></td></tr><tr><td style="font-weight:bold;vertical-align:top;">expires</td><td style="vertical-align:top;">:</td><td><div></div></td></tr><tr><td style="font-weight:bold;vertical-align:top;">httponly</td><td style="vertical-align:top;">:</td><td><div></div></td></tr><tr><td style="font-weight:bold;vertical-align:top;">max-age</td><td style="vertical-align:top;">:</td><td><div></div></td></tr><tr><td style="font-weight:bold;vertical-align:top;">path</td><td style="vertical-align:top;">:</td><td><div></div></td></tr><tr><td style="font-weight:bold;vertical-align:top;">secure</td><td style="vertical-align:top;">:</td><td><div></div></td></tr><tr><td style="font-weight:bold;vertical-align:top;">version</td><td style="vertical-align:top;">:</td><td><div></div></td></tr></table></div></td></tr><tr><td style="font-weight:bold;vertical-align:top;">session_id_hw1</td><td style="vertical-align:top;">:</td><td><div>127.0.0.1-45be0491-efc5-4fa2-afb0-8776dc019447<table><tr><td style="font-weight:bold;vertical-align:top;">comment</td><td style="vertical-align:top;">:</td><td><div></div></td></tr><tr><td style="font-weight:bold;vertical-align:top;">domain</td><td style="vertical-align:top;">:</td><td><div></div></td></tr><tr><td style="font-weight:bold;vertical-align:top;">expires</td><td style="vertical-align:top;">:</td><td><div></div></td></tr><tr><td style="font-weight:bold;vertical-align:top;">httponly</td><td style="vertical-align:top;">:</td><td><div></div></td></tr><tr><td style="font-weight:bold;vertical-align:top;">max-age</td><td style="vertical-align:top;">:</td><td><div></div></td></tr><tr><td style="font-weight:bold;vertical-align:top;">path</td><td style="vertical-align:top;">:</td><td><div></div></td></tr><tr><td style="font-weight:bold;vertical-align:top;">secure</td><td style="vertical-align:top;">:</td><td><div></div></td></tr><tr><td style="font-weight:bold;vertical-align:top;">version</td><td style="vertical-align:top;">:</td><td><div></div></td></tr></table></div></td></tr><tr><td style="font-weight:bold;vertical-align:top;">session_id_hw2</td><td style="vertical-align:top;">:</td><td><div>127.0.0.1-3655fb89-434f-437b-8dab-d75851ba7644<table><tr><td style="font-weight:bold;vertical-align:top;">comment</td><td style="vertical-align:top;">:</td><td><div></div></td></tr><tr><td style="font-weight:bold;vertical-align:top;">domain</td><td style="vertical-align:top;">:</td><td><div></div></td></tr><tr><td style="font-weight:bold;vertical-align:top;">expires</td><td style="vertical-align:top;">:</td><td><div></div></td></tr><tr><td style="font-weight:bold;vertical-align:top;">httponly</td><td style="vertical-align:top;">:</td><td><div></div></td></tr><tr><td style="font-weight:bold;vertical-align:top;">max-age</td><td style="vertical-align:top;">:</td><td><div></div></td></tr><tr><td style="font-weight:bold;vertical-align:top;">path</td><td style="vertical-align:top;">:</td><td><div></div></td></tr><tr><td style="font-weight:bold;vertical-align:top;">secure</td><td style="vertical-align:top;">:</td><td><div></div></td></tr><tr><td style="font-weight:bold;vertical-align:top;">version</td><td style="vertical-align:top;">:</td><td><div></div></td></tr></table></div></td></tr><tr><td style="font-weight:bold;vertical-align:top;">session_id_hw3</td><td style="vertical-align:top;">:</td><td><div>127.0.0.1-3f8a20ea-ca88-49de-a8d8-27df18a3a14b<table><tr><td style="font-weight:bold;vertical-align:top;">comment</td><td style="vertical-align:top;">:</td><td><div></div></td></tr><tr><td style="font-weight:bold;vertical-align:top;">domain</td><td style="vertical-align:top;">:</td><td><div></div></td></tr><tr><td style="font-weight:bold;vertical-align:top;">expires</td><td style="vertical-align:top;">:</td><td><div></div></td></tr><tr><td style="font-weight:bold;vertical-align:top;">httponly</td><td style="vertical-align:top;">:</td><td><div></div></td></tr><tr><td style="font-weight:bold;vertical-align:top;">max-age</td><td style="vertical-align:top;">:</td><td><div></div></td></tr><tr><td style="font-weight:bold;vertical-align:top;">path</td><td style="vertical-align:top;">:</td><td><div></div></td></tr><tr><td style="font-weight:bold;vertical-align:top;">secure</td><td style="vertical-align:top;">:</td><td><div></div></td></tr><tr><td style="font-weight:bold;vertical-align:top;">version</td><td style="vertical-align:top;">:</td><td><div></div></td></tr></table></div></td></tr><tr><td style="font-weight:bold;vertical-align:top;">session_id_images</td><td style="vertical-align:top;">:</td><td><div>127.0.0.1-8af9476a-ed8c-44f7-a06c-8517271f6964<table><tr><td style="font-weight:bold;vertical-align:top;">comment</td><td style="vertical-align:top;">:</td><td><div></div></td></tr><tr><td style="font-weight:bold;vertical-align:top;">domain</td><td style="vertical-align:top;">:</td><td><div></div></td></tr><tr><td style="font-weight:bold;vertical-align:top;">expires</td><td style="vertical-align:top;">:</td><td><div></div></td></tr><tr><td style="font-weight:bold;vertical-align:top;">httponly</td><td style="vertical-align:top;">:</td><td><div></div></td></tr><tr><td style="font-weight:bold;vertical-align:top;">max-age</td><td style="vertical-align:top;">:</td><td><div></div></td></tr><tr><td style="font-weight:bold;vertical-align:top;">path</td><td style="vertical-align:top;">:</td><td><div></div></td></tr><tr><td style="font-weight:bold;vertical-align:top;">secure</td><td style="vertical-align:top;">:</td><td><div></div></td></tr><tr><td style="font-weight:bold;vertical-align:top;">version</td><td style="vertical-align:top;">:</td><td><div></div></td></tr></table></div></td></tr><tr><td style="font-weight:bold;vertical-align:top;">session_id_mixin</td><td style="vertical-align:top;">:</td><td><div>127.0.0.1-a33488bf-412a-463c-978b-d3fee6d16420<table><tr><td style="font-weight:bold;vertical-align:top;">comment</td><td style="vertical-align:top;">:</td><td><div></div></td></tr><tr><td style="font-weight:bold;vertical-align:top;">domain</td><td style="vertical-align:top;">:</td><td><div></div></td></tr><tr><td style="font-weight:bold;vertical-align:top;">expires</td><td style="vertical-align:top;">:</td><td><div></div></td></tr><tr><td style="font-weight:bold;vertical-align:top;">httponly</td><td style="vertical-align:top;">:</td><td><div></div></td></tr><tr><td style="font-weight:bold;vertical-align:top;">max-age</td><td style="vertical-align:top;">:</td><td><div></div></td></tr><tr><td style="font-weight:bold;vertical-align:top;">path</td><td style="vertical-align:top;">:</td><td><div></div></td></tr><tr><td style="font-weight:bold;vertical-align:top;">secure</td><td style="vertical-align:top;">:</td><td><div></div></td></tr><tr><td style="font-weight:bold;vertical-align:top;">version</td><td style="vertical-align:top;">:</td><td><div></div></td></tr></table></div></td></tr><tr><td style="font-weight:bold;vertical-align:top;">session_id_styletest</td><td style="vertical-align:top;">:</td><td><div>127.0.0.1-322906b3-a97b-4363-8258-280f6ba1999b<table><tr><td style="font-weight:bold;vertical-align:top;">comment</td><td style="vertical-align:top;">:</td><td><div></div></td></tr><tr><td style="font-weight:bold;vertical-align:top;">domain</td><td style="vertical-align:top;">:</td><td><div></div></td></tr><tr><td style="font-weight:bold;vertical-align:top;">expires</td><td style="vertical-align:top;">:</td><td><div></div></td></tr><tr><td style="font-weight:bold;vertical-align:top;">httponly</td><td style="vertical-align:top;">:</td><td><div></div></td></tr><tr><td style="font-weight:bold;vertical-align:top;">max-age</td><td style="vertical-align:top;">:</td><td><div></div></td></tr><tr><td style="font-weight:bold;vertical-align:top;">path</td><td style="vertical-align:top;">:</td><td><div></div></td></tr><tr><td style="font-weight:bold;vertical-align:top;">secure</td><td style="vertical-align:top;">:</td><td><div></div></td></tr><tr><td style="font-weight:bold;vertical-align:top;">version</td><td style="vertical-align:top;">:</td><td><div></div></td></tr></table></div></td></tr><tr><td style="font-weight:bold;vertical-align:top;">session_id_temp</td><td style="vertical-align:top;">:</td><td><div>127.0.0.1-ad1955d3-15be-45f4-b8bd-20cc0375be3d<table><tr><td style="font-weight:bold;vertical-align:top;">comment</td><td style="vertical-align:top;">:</td><td><div></div></td></tr><tr><td style="font-weight:bold;vertical-align:top;">domain</td><td style="vertical-align:top;">:</td><td><div></div></td></tr><tr><td style="font-weight:bold;vertical-align:top;">expires</td><td style="vertical-align:top;">:</td><td><div></div></td></tr><tr><td style="font-weight:bold;vertical-align:top;">httponly</td><td style="vertical-align:top;">:</td><td><div></div></td></tr><tr><td style="font-weight:bold;vertical-align:top;">max-age</td><td style="vertical-align:top;">:</td><td><div></div></td></tr><tr><td style="font-weight:bold;vertical-align:top;">path</td><td style="vertical-align:top;">:</td><td><div></div></td></tr><tr><td style="font-weight:bold;vertical-align:top;">secure</td><td style="vertical-align:top;">:</td><td><div></div></td></tr><tr><td style="font-weight:bold;vertical-align:top;">version</td><td style="vertical-align:top;">:</td><td><div></div></td></tr></table></div></td></tr><tr><td style="font-weight:bold;vertical-align:top;">session_id_welcome</td><td style="vertical-align:top;">:</td><td><div>127.0.0.1-4d41c5b5-11f2-421a-8b51-ce5941d81afb<table><tr><td style="font-weight:bold;vertical-align:top;">comment</td><td style="vertical-align:top;">:</td><td><div></div></td></tr><tr><td style="font-weight:bold;vertical-align:top;">domain</td><td style="vertical-align:top;">:</td><td><div></div></td></tr><tr><td style="font-weight:bold;vertical-align:top;">expires</td><td style="vertical-align:top;">:</td><td><div></div></td></tr><tr><td style="font-weight:bold;vertical-align:top;">httponly</td><td style="vertical-align:top;">:</td><td><div></div></td></tr><tr><td style="font-weight:bold;vertical-align:top;">max-age</td><td style="vertical-align:top;">:</td><td><div></div></td></tr><tr><td style="font-weight:bold;vertical-align:top;">path</td><td style="vertical-align:top;">:</td><td><div></div></td></tr><tr><td style="font-weight:bold;vertical-align:top;">secure</td><td style="vertical-align:top;">:</td><td><div></div></td></tr><tr><td style="font-weight:bold;vertical-align:top;">version</td><td style="vertical-align:top;">:</td><td><div></div></td></tr></table></div></td></tr></table></div></td></tr><tr><td style="font-weight:bold;vertical-align:top;">env</td><td style="vertical-align:top;">:</td><td><div><table><tr><td style="font-weight:bold;vertical-align:top;">CONTENT_LENGTH</td><td style="vertical-align:top;">:</td><td><div>15</div></td></tr><tr><td style="font-weight:bold;vertical-align:top;">CONTENT_TYPE</td><td style="vertical-align:top;">:</td><td><div>application/x-www-form-urlencoded; charset=UTF-8</div></td></tr><tr><td style="font-weight:bold;vertical-align:top;">HTTP_ACCEPT</td><td style="vertical-align:top;">:</td><td><div>*/*</div></td></tr><tr><td style="font-weight:bold;vertical-align:top;">HTTP_ACCEPT_ENCODING</td><td style="vertical-align:top;">:</td><td><div>gzip, deflate, br</div></td></tr><tr><td style="font-weight:bold;vertical-align:top;">HTTP_ACCEPT_LANGUAGE</td><td style="vertical-align:top;">:</td><td><div>en-US,en;q=0.8,ja;q=0.6,zh-CN;q=0.4,zh;q=0.2,fr;q=0.2</div></td></tr><tr><td style="font-weight:bold;vertical-align:top;">HTTP_CONNECTION</td><td style="vertical-align:top;">:</td><td><div>keep-alive</div></td></tr><tr><td style="font-weight:bold;vertical-align:top;">HTTP_CONTENT_LENGTH</td><td style="vertical-align:top;">:</td><td><div>15</div></td></tr><tr><td style="font-weight:bold;vertical-align:top;">HTTP_CONTENT_TYPE</td><td style="vertical-align:top;">:</td><td><div>application/x-www-form-urlencoded; charset=UTF-8</div></td></tr><tr><td style="font-weight:bold;vertical-align:top;">HTTP_COOKIE</td><td style="vertical-align:top;">:</td><td><div>session_id_temp=127.0.0.1-ad1955d3-15be-45f4-b8bd-20cc0375be3d; session_id_hw2=127.0.0.1-3655fb89-434f-437b-8dab-d75851ba7644; session_id_hw1=127.0.0.1-45be0491-efc5-4fa2-afb0-8776dc019447; session_id_images=127.0.0.1-8af9476a-ed8c-44f7-a06c-8517271f6964; session_id_welcome=127.0.0.1-4d41c5b5-11f2-421a-8b51-ce5941d81afb; session_id_styletest=127.0.0.1-322906b3-a97b-4363-8258-280f6ba1999b; session_id_hw3=127.0.0.1-3f8a20ea-ca88-49de-a8d8-27df18a3a14b; session_id_admin=127.0.0.1-c832819b-3826-4292-b201-f0eeb4825558; session_id_mixin=127.0.0.1-a33488bf-412a-463c-978b-d3fee6d16420</div></td></tr><tr><td style="font-weight:bold;vertical-align:top;">HTTP_HOST</td><td style="vertical-align:top;">:</td><td><div>127.0.0.1:8000</div></td></tr><tr><td style="font-weight:bold;vertical-align:top;">HTTP_ORIGIN</td><td style="vertical-align:top;">:</td><td><div>http://127.0.0.1:8000</div></td></tr><tr><td style="font-weight:bold;vertical-align:top;">HTTP_REFERER</td><td style="vertical-align:top;">:</td><td><div>http://127.0.0.1:8000/mixin/ryanho</div></td></tr><tr><td style="font-weight:bold;vertical-align:top;">HTTP_USER_AGENT</td><td style="vertical-align:top;">:</td><td><div>Mozilla/5.0 (Macintosh; Intel Mac OS X 10_11_4) AppleWebKit/537.36 (KHTML, like Gecko) Chrome/56.0.2924.87 Safari/537.36</div></td></tr><tr><td style="font-weight:bold;vertical-align:top;">HTTP_X_REQUESTED_WITH</td><td style="vertical-align:top;">:</td><td><div>XMLHttpRequest</div></td></tr><tr><td style="font-weight:bold;vertical-align:top;">PATH_INFO</td><td style="vertical-align:top;">:</td><td><div>/mixin/new_message</div></td></tr><tr><td style="font-weight:bold;vertical-align:top;">QUERY_STRING</td><td style="vertical-align:top;">:</td><td><div></div></td></tr><tr><td style="font-weight:bold;vertical-align:top;">REMOTE_ADDR</td><td style="vertical-align:top;">:</td><td><div>127.0.0.1</div></td></tr><tr><td style="font-weight:bold;vertical-align:top;">REMOTE_PORT</td><td style="vertical-align:top;">:</td><td><div>58463</div></td></tr><tr><td style="font-weight:bold;vertical-align:top;">REQUEST_METHOD</td><td style="vertical-align:top;">:</td><td><div>POST</div></td></tr><tr><td style="font-weight:bold;vertical-align:top;">SCRIPT_NAME</td><td style="vertical-align:top;">:</td><td><div></div></td></tr><tr><td style="font-weight:bold;vertical-align:top;">SERVER_NAME</td><td style="vertical-align:top;">:</td><td><div>Kaitakus-MacBook-Pro.local</div></td></tr><tr><td style="font-weight:bold;vertical-align:top;">SERVER_PORT</td><td style="vertical-align:top;">:</td><td><div>8000</div></td></tr><tr><td style="font-weight:bold;vertical-align:top;">SERVER_PROTOCOL</td><td style="vertical-align:top;">:</td><td><div>HTTP/1.1</div></td></tr><tr><td style="font-weight:bold;vertical-align:top;">SERVER_SOFTWARE</td><td style="vertical-align:top;">:</td><td><div>Rocket 1.2.6</div></td></tr><tr><td style="font-weight:bold;vertical-align:top;">app_folders</td><td style="vertical-align:top;">:</td><td><div>set([&#x27;/Users/Kaitaku/Documents/cs183/web2py/applications/admin/&#x27;, &#x27;/Users/Kaitaku/Documents/cs183/web2py/applications/mixin/&#x27;])</div></td></tr><tr><td style="font-weight:bold;vertical-align:top;">applications_parent</td><td style="vertical-align:top;">:</td><td><div>/Users/Kaitaku/Documents/cs183/web2py</div></td></tr><tr><td style="font-weight:bold;vertical-align:top;">cmd_args</td><td style="vertical-align:top;">:</td><td><div><table></table></div></td></tr><tr><td style="font-weight:bold;vertical-align:top;">cmd_options</td><td style="vertical-align:top;">:</td><td><div>&lt;Values at 0x1068bab90: {&#x27;verbose&#x27;: False, &#x27;ip&#x27;: &#x27;127.0.0.1&#x27;, &#x27;debuglevel&#x27;: 30, &#x27;with_scheduler&#x27;: False, &#x27;shutdown_timeout&#x27;: 5, &#x27;taskbar&#x27;: False, &#x27;with_coverage&#x27;: False, &#x27;pid_filename&#x27;: &#x27;httpserver.pid&#x27;, &#x27;maxthreads&#x27;: None, &#x27;softcron&#x27;: False, &#x27;server_name&#x27;: &#x27;Kaitakus-MacBook-Pro.local&#x27;, &#x27;bpython&#x27;: False, &#x27;nogui&#x27;: False, &#x27;port&#x27;: 8000, &#x27;print_errors&#x27;: False, &#x27;extcron&#x27;: False, &#x27;runcron&#x27;: False, &#x27;run_system_tests&#x27;: False, &#x27;test&#x27;: None, &#x27;folder&#x27;: &#x27;/Users/Kaitaku/Documents/cs183/web2py&#x27;, &#x27;config&#x27;: &#x27;&#x27;, &#x27;minthreads&#x27;: None, &#x27;shell&#x27;: None, &#x27;run&#x27;: &#x27;&#x27;, &#x27;log_filename&#x27;: &#x27;httpserver.log&#x27;, &#x27;profiler_dir&#x27;: None, &#x27;args&#x27;: [&#x27;&#x27;], &#x27;socket_timeout&#x27;: 5, &#x27;ssl_ca_certificate&#x27;: None, &#x27;scheduler&#x27;: None, &#x27;interfaces&#x27;: None, &#x27;ssl_private_key&#x27;: &#x27;&#x27;, &#x27;gae&#x27;: None, &#x27;password&#x27;: &#x27;******&#x27;, &#x27;request_queue_size&#x27;: 5, &#x27;ssl_certificate&#x27;: &#x27;&#x27;, &#x27;cronjob&#x27;: False, &#x27;numthreads&#x27;: None, &#x27;quiet&#x27;: False, &#x27;import_models&#x27;: False, &#x27;timeout&#x27;: 10, &#x27;plain&#x27;: False, &#x27;nobanner&#x27;: False}&gt;</div></td></tr><tr><td style="font-weight:bold;vertical-align:top;">content_length</td><td style="vertical-align:top;">:</td><td><div>15</div></td></tr><tr><td style="font-weight:bold;vertical-align:top;">content_type</td><td style="vertical-align:top;">:</td><td><div>application/x-www-form-urlencoded; charset=UTF-8</div></td></tr><tr><td style="font-weight:bold;vertical-align:top;">db_sessions</td><td style="vertical-align:top;">:</td><td><div>set([])</div></td></tr><tr><td style="font-weight:bold;vertical-align:top;">debugging</td><td style="vertical-align:top;">:</td><td><div>False</div></td></tr><tr><td style="font-weight:bold;vertical-align:top;">gluon_parent</td><td style="vertical-align:top;">:</td><td><div>/Users/Kaitaku/Documents/cs183/web2py</div></td></tr><tr><td style="font-weight:bold;vertical-align:top;">http_accept</td><td style="vertical-align:top;">:</td><td><div>*/*</div></td></tr><tr><td style="font-weight:bold;vertical-align:top;">http_accept_encoding</td><td style="vertical-align:top;">:</td><td><div>gzip, deflate, br</div></td></tr><tr><td style="font-weight:bold;vertical-align:top;">http_accept_language</td><td style="vertical-align:top;">:</td><td><div>en-US,en;q=0.8,ja;q=0.6,zh-CN;q=0.4,zh;q=0.2,fr;q=0.2</div></td></tr><tr><td style="font-weight:bold;vertical-align:top;">http_connection</td><td style="vertical-align:top;">:</td><td><div>keep-alive</div></td></tr><tr><td style="font-weight:bold;vertical-align:top;">http_content_length</td><td style="vertical-align:top;">:</td><td><div>15</div></td></tr><tr><td style="font-weight:bold;vertical-align:top;">http_content_type</td><td style="vertical-align:top;">:</td><td><div>application/x-www-form-urlencoded; charset=UTF-8</div></td></tr><tr><td style="font-weight:bold;vertical-align:top;">http_cookie</td><td style="vertical-align:top;">:</td><td><div>session_id_temp=127.0.0.1-ad1955d3-15be-45f4-b8bd-20cc0375be3d; session_id_hw2=127.0.0.1-3655fb89-434f-437b-8dab-d75851ba7644; session_id_hw1=127.0.0.1-45be0491-efc5-4fa2-afb0-8776dc019447; session_id_images=127.0.0.1-8af9476a-ed8c-44f7-a06c-8517271f6964; session_id_welcome=127.0.0.1-4d41c5b5-11f2-421a-8b51-ce5941d81afb; session_id_styletest=127.0.0.1-322906b3-a97b-4363-8258-280f6ba1999b; session_id_hw3=127.0.0.1-3f8a20ea-ca88-49de-a8d8-27df18a3a14b; session_id_admin=127.0.0.1-c832819b-3826-4292-b201-f0eeb4825558; session_id_mixin=127.0.0.1-a33488bf-412a-463c-978b-d3fee6d16420</div></td></tr><tr><td style="font-weight:bold;vertical-align:top;">http_host</td><td style="vertical-align:top;">:</td><td><div>127.0.0.1:8000</div></td></tr><tr><td style="font-weight:bold;vertical-align:top;">http_origin</td><td style="vertical-align:top;">:</td><td><div>http://127.0.0.1:8000</div></td></tr><tr><td style="font-weight:bold;vertical-align:top;">http_referer</td><td style="vertical-align:top;">:</td><td><div>http://127.0.0.1:8000/mixin/ryanho</div></td></tr><tr><td style="font-weight:bold;vertical-align:top;">http_user_agent</td><td style="vertical-align:top;">:</td><td><div>Mozilla/5.0 (Macintosh; Intel Mac OS X 10_11_4) AppleWebKit/537.36 (KHTML, like Gecko) Chrome/56.0.2924.87 Safari/537.36</div></td></tr><tr><td style="font-weight:bold;vertical-align:top;">http_x_requested_with</td><td style="vertical-align:top;">:</td><td><div>XMLHttpRequest</div></td></tr><tr><td style="font-weight:bold;vertical-align:top;">is_jython</td><td style="vertical-align:top;">:</td><td><div>False</div></td></tr><tr><td style="font-weight:bold;vertical-align:top;">is_pypy</td><td style="vertical-align:top;">:</td><td><div>False</div></td></tr><tr><td style="font-weight:bold;vertical-align:top;">is_source</td><td style="vertical-align:top;">:</td><td><div>True</div></td></tr><tr><td style="font-weight:bold;vertical-align:top;">local_hosts</td><td style="vertical-align:top;">:</td><td><div><table><tr><td><div>Kaitakus-MacBook-Pro.local</div></td></tr><tr><td><div>kaitakus-macbook-pro.local</div></td></tr><tr><td><div>::ffff:127.0.0.1</div></td></tr><tr><td><div>::1</div></td></tr><tr><td><div>192.168.1.138</div></td></tr><tr><td><div>fe80::bae8:56ff:fe2b:530a%en0</div></td></tr><tr><td><div>127.0.0.1</div></td></tr></table></div></td></tr><tr><td style="font-weight:bold;vertical-align:top;">path_info</td><td style="vertical-align:top;">:</td><td><div>/mixin/new_message</div></td></tr><tr><td style="font-weight:bold;vertical-align:top;">query_string</td><td style="vertical-align:top;">:</td><td><div></div></td></tr><tr><td style="font-weight:bold;vertical-align:top;">remote_addr</td><td style="vertical-align:top;">:</td><td><div>127.0.0.1</div></td></tr><tr><td style="font-weight:bold;vertical-align:top;">remote_port</td><td style="vertical-align:top;">:</td><td><div>58463</div></td></tr><tr><td style="font-weight:bold;vertical-align:top;">request_method</td><td style="vertical-align:top;">:</td><td><div>POST</div></td></tr><tr><td style="font-weight:bold;vertical-align:top;">request_uri</td><td style="vertical-align:top;">:</td><td><div>/mixin/default/new_message</div></td></tr><tr><td style="font-weight:bold;vertical-align:top;">script_name</td><td style="vertical-align:top;">:</td><td><div></div></td></tr><tr><td style="font-weight:bold;vertical-align:top;">server_name</td><td style="vertical-align:top;">:</td><td><div>Kaitakus-MacBook-Pro.local</div></td></tr><tr><td style="font-weight:bold;vertical-align:top;">server_port</td><td style="vertical-align:top;">:</td><td><div>8000</div></td></tr><tr><td style="font-weight:bold;vertical-align:top;">server_protocol</td><td style="vertical-align:top;">:</td><td><div>HTTP/1.1</div></td></tr><tr><td style="font-weight:bold;vertical-align:top;">server_software</td><td style="vertical-align:top;">:</td><td><div>Rocket 1.2.6</div></td></tr><tr><td style="font-weight:bold;vertical-align:top;">web2py_original_uri</td><td style="vertical-align:top;">:</td><td><div>/mixin/new_message</div></td></tr><tr><td style="font-weight:bold;vertical-align:top;">web2py_path</td><td style="vertical-align:top;">:</td><td><div>/Users/Kaitaku/Documents/cs183/web2py</div></td></tr><tr><td style="font-weight:bold;vertical-align:top;">web2py_version</td><td style="vertical-align:top;">:</td><td><div>2.14.6-stable+timestamp.2016.05.10.00.21.47</div></td></tr><tr><td style="font-weight:bold;vertical-align:top;">wsgi.errors</td><td style="vertical-align:top;">:</td><td><div>&lt;open file &#x27;&lt;stderr&gt;&#x27;, mode &#x27;w&#x27; at 0x1059061e0&gt;</div></td></tr><tr><td style="font-weight:bold;vertical-align:top;">wsgi.file_wrapper</td><td style="vertical-align:top;">:</td><td><div>&lt;class wsgiref.util.FileWrapper at 0x1068621f0&gt;</div></td></tr><tr><td style="font-weight:bold;vertical-align:top;">wsgi.input</td><td style="vertical-align:top;">:</td><td><div>&lt;socket._fileobject object at 0x1068e5350&gt;</div></td></tr><tr><td style="font-weight:bold;vertical-align:top;">wsgi.multiprocess</td><td style="vertical-align:top;">:</td><td><div>False</div></td></tr><tr><td style="font-weight:bold;vertical-align:top;">wsgi.multithread</td><td style="vertical-align:top;">:</td><td><div>True</div></td></tr><tr><td style="font-weight:bold;vertical-align:top;">wsgi.run_once</td><td style="vertical-align:top;">:</td><td><div>False</div></td></tr><tr><td style="font-weight:bold;vertical-align:top;">wsgi.url_scheme</td><td style="vertical-align:top;">:</td><td><div>http</div></td></tr><tr><td style="font-weight:bold;vertical-align:top;">wsgi.version</td><td style="vertical-align:top;">:</td><td><div><table><tr><td><div>1</div></td></tr><tr><td><div>0</div></td></tr></table></div></td></tr><tr><td style="font-weight:bold;vertical-align:top;">wsgi_errors</td><td style="vertical-align:top;">:</td><td><div>&lt;open file &#x27;&lt;stderr&gt;&#x27;, mode &#x27;w&#x27; at 0x1059061e0&gt;</div></td></tr><tr><td style="font-weight:bold;vertical-align:top;">wsgi_file_wrapper</td><td style="vertical-align:top;">:</td><td><div>&lt;class wsgiref.util.FileWrapper at 0x1068621f0&gt;</div></td></tr><tr><td style="font-weight:bold;vertical-align:top;">wsgi_input</td><td style="vertical-align:top;">:</td><td><div>&lt;socket._fileobject object at 0x1068e5350&gt;</div></td></tr><tr><td style="font-weight:bold;vertical-align:top;">wsgi_multiprocess</td><td style="vertical-align:top;">:</td><td><div>False</div></td></tr><tr><td style="font-weight:bold;vertical-align:top;">wsgi_multithread</td><td style="vertical-align:top;">:</td><td><div>True</div></td></tr><tr><td style="font-weight:bold;vertical-align:top;">wsgi_run_once</td><td style="vertical-align:top;">:</td><td><div>False</div></td></tr><tr><td style="font-weight:bold;vertical-align:top;">wsgi_url_scheme</td><td style="vertical-align:top;">:</td><td><div>http</div></td></tr><tr><td style="font-weight:bold;vertical-align:top;">wsgi_version</td><td style="vertical-align:top;">:</td><td><div><table><tr><td><div>1</div></td></tr><tr><td><div>0</div></td></tr></table></div></td></tr></table></div></td></tr><tr><td style="font-weight:bold;vertical-align:top;">extension</td><td style="vertical-align:top;">:</td><td><div>html</div></td></tr><tr><td style="font-weight:bold;vertical-align:top;">folder</td><td style="vertical-align:top;">:</td><td><div>/Users/Kaitaku/Documents/cs183/web2py/applications/mixin/</div></td></tr><tr><td style="font-weight:bold;vertical-align:top;">function</td><td style="vertical-align:top;">:</td><td><div>new_message</div></td></tr><tr><td style="font-weight:bold;vertical-align:top;">global_settings</td><td style="vertical-align:top;">:</td><td><div><table><tr><td style="font-weight:bold;vertical-align:top;">app_folders</td><td style="vertical-align:top;">:</td><td><div>set([&#x27;/Users/Kaitaku/Documents/cs183/web2py/applications/admin/&#x27;, &#x27;/Users/Kaitaku/Documents/cs183/web2py/applications/mixin/&#x27;])</div></td></tr><tr><td style="font-weight:bold;vertical-align:top;">applications_parent</td><td style="vertical-align:top;">:</td><td><div>/Users/Kaitaku/Documents/cs183/web2py</div></td></tr><tr><td style="font-weight:bold;vertical-align:top;">cmd_args</td><td style="vertical-align:top;">:</td><td><div><table></table></div></td></tr><tr><td style="font-weight:bold;vertical-align:top;">cmd_options</td><td style="vertical-align:top;">:</td><td><div>&lt;Values at 0x1068bab90: {&#x27;verbose&#x27;: False, &#x27;ip&#x27;: &#x27;127.0.0.1&#x27;, &#x27;debuglevel&#x27;: 30, &#x27;with_scheduler&#x27;: False, &#x27;shutdown_timeout&#x27;: 5, &#x27;taskbar&#x27;: False, &#x27;with_coverage&#x27;: False, &#x27;pid_filename&#x27;: &#x27;httpserver.pid&#x27;, &#x27;maxthreads&#x27;: None, &#x27;softcron&#x27;: False, &#x27;server_name&#x27;: &#x27;Kaitakus-MacBook-Pro.local&#x27;, &#x27;bpython&#x27;: False, &#x27;nogui&#x27;: False, &#x27;port&#x27;: 8000, &#x27;print_errors&#x27;: False, &#x27;extcron&#x27;: False, &#x27;runcron&#x27;: False, &#x27;run_system_tests&#x27;: False, &#x27;test&#x27;: None, &#x27;folder&#x27;: &#x27;/Users/Kaitaku/Documents/cs183/web2py&#x27;, &#x27;config&#x27;: &#x27;&#x27;, &#x27;minthreads&#x27;: None, &#x27;shell&#x27;: None, &#x27;run&#x27;: &#x27;&#x27;, &#x27;log_filename&#x27;: &#x27;httpserver.log&#x27;, &#x27;profiler_dir&#x27;: None, &#x27;args&#x27;: [&#x27;&#x27;], &#x27;socket_timeout&#x27;: 5, &#x27;ssl_ca_certificate&#x27;: None, &#x27;scheduler&#x27;: None, &#x27;interfaces&#x27;: None, &#x27;ssl_private_key&#x27;: &#x27;&#x27;, &#x27;gae&#x27;: None, &#x27;password&#x27;: &#x27;******&#x27;, &#x27;request_queue_size&#x27;: 5, &#x27;ssl_certificate&#x27;: &#x27;&#x27;, &#x27;cronjob&#x27;: False, &#x27;numthreads&#x27;: None, &#x27;quiet&#x27;: False, &#x27;import_models&#x27;: False, &#x27;timeout&#x27;: 10, &#x27;plain&#x27;: False, &#x27;nobanner&#x27;: False}&gt;</div></td></tr><tr><td style="font-weight:bold;vertical-align:top;">db_sessions</td><td style="vertical-align:top;">:</td><td><div>set([])</div></td></tr><tr><td style="font-weight:bold;vertical-align:top;">debugging</td><td style="vertical-align:top;">:</td><td><div>False</div></td></tr><tr><td style="font-weight:bold;vertical-align:top;">gluon_parent</td><td style="vertical-align:top;">:</td><td><div>/Users/Kaitaku/Documents/cs183/web2py</div></td></tr><tr><td style="font-weight:bold;vertical-align:top;">is_jython</td><td style="vertical-align:top;">:</td><td><div>False</div></td></tr><tr><td style="font-weight:bold;vertical-align:top;">is_pypy</td><td style="vertical-align:top;">:</td><td><div>False</div></td></tr><tr><td style="font-weight:bold;vertical-align:top;">is_source</td><td style="vertical-align:top;">:</td><td><div>True</div></td></tr><tr><td style="font-weight:bold;vertical-align:top;">local_hosts</td><td style="vertical-align:top;">:</td><td><div><table><tr><td><div>Kaitakus-MacBook-Pro.local</div></td></tr><tr><td><div>kaitakus-macbook-pro.local</div></td></tr><tr><td><div>::ffff:127.0.0.1</div></td></tr><tr><td><div>::1</div></td></tr><tr><td><div>192.168.1.138</div></td></tr><tr><td><div>fe80::bae8:56ff:fe2b:530a%en0</div></td></tr><tr><td><div>127.0.0.1</div></td></tr></table></div></td></tr><tr><td style="font-weight:bold;vertical-align:top;">web2py_version</td><td style="vertical-align:top;">:</td><td><div>2.14.6-stable+timestamp.2016.05.10.00.21.47</div></td></tr></table></div></td></tr><tr><td style="font-weight:bold;vertical-align:top;">is_https</td><td style="vertical-align:top;">:</td><td><div>False</div></td></tr><tr><td style="font-weight:bold;vertical-align:top;">is_local</td><td style="vertical-align:top;">:</td><td><div>True</div></td></tr><tr><td style="font-weight:bold;vertical-align:top;">is_restful</td><td style="vertical-align:top;">:</td><td><div>False</div></td></tr><tr><td style="font-weight:bold;vertical-align:top;">is_scheduler</td><td style="vertical-align:top;">:</td><td><div>False</div></td></tr><tr><td style="font-weight:bold;vertical-align:top;">is_shell</td><td style="vertical-align:top;">:</td><td><div>False</div></td></tr><tr><td style="font-weight:bold;vertical-align:top;">now</td><td style="vertical-align:top;">:</td><td><div>datetime.datetime(2017, 3, 4, 16, 27, 34, 345540)</div></td></tr><tr><td style="font-weight:bold;vertical-align:top;">url</td><td style="vertical-align:top;">:</td><td><div>/mixin/new_message</div></td></tr><tr><td style="font-weight:bold;vertical-align:top;">utcnow</td><td style="vertical-align:top;">:</td><td><div>datetime.datetime(2017, 3, 5, 0, 27, 34, 345573)</div></td></tr><tr><td style="font-weight:bold;vertical-align:top;">wsgi</td><td style="vertical-align:top;">:</td><td><div>&lt;gluon.main.LazyWSGI object at 0x10cd7f890&gt;</div></td></tr></table></div>'
tRp64
sS'frames'
p65
(lp66
(dp67
S'file'
p68
S'/Users/Kaitaku/Documents/cs183/web2py/gluon/restricted.py'
p69
sS'dump'
p70
(dp71
S'environment'
p72
S"{'A': <class 'gluon.html.A'>, 'ANY_OF': <class 'gluon.validators.ANY_OF'>, 'ASSIGNJS': <function ASSIGNJS>, 'AppConfig': <function AppConfig>, 'Auth': <class 'gluon.tools.Auth'>, 'B': <class 'gluon.html.B'>, 'BEAUTIFY': <class 'gluon.html.BEAUTIFY'>, 'BODY': <class 'gluon.html.BODY'>, 'BR': <class 'gluon.html.BR'>, 'BUTTON': <class 'gluon.html.BUTTON'>, ...}"
p73
sS'ccode'
p74
S'<code object <module> at 0x10cd7bd30, file "/Use...lications/mixin/controllers/default.py", line 11>'
p75
ssS'lnum'
p76
I227
sS'lines'
p77
(dp78
I224
S'            ccode = code'
p79
sI225
S'        else:'
p80
sI226
S'            ccode = compile2(code, layer)'
p81
sI227
S'        exec ccode in environment'
p82
sI228
S'    except HTTP:'
p83
sI229
S'        raise'
p84
sI230
S'    except RestrictedError:'
p85
sI231
S'        # do not encapsulate (obfuscate) the original RestrictedError'
p86
sI222
S'    try:'
p87
sI223
S'        if isinstance(code, types.CodeType):'
p88
ssS'call'
p89
S"(code='# -*- coding: utf-8 -*-\\n# this file is released ...()\\n\\nresponse._vars=response._caller(new_message)\\n', environment={'A': <class 'gluon.html.A'>, 'ANY_OF': <class 'gluon.validators.ANY_OF'>, 'ASSIGNJS': <function ASSIGNJS>, 'AppConfig': <function AppConfig>, 'Auth': <class 'gluon.tools.Auth'>, 'B': <class 'gluon.html.B'>, 'BEAUTIFY': <class 'gluon.html.BEAUTIFY'>, 'BODY': <class 'gluon.html.BODY'>, 'BR': <class 'gluon.html.BR'>, 'BUTTON': <class 'gluon.html.BUTTON'>, ...}, layer='/Users/Kaitaku/Documents/cs183/web2py/applications/mixin/controllers/default.py')"
p90
sS'func'
p91
S'restricted'
p92
sa(dp93
g68
S'/Users/Kaitaku/Documents/cs183/web2py/applications/mixin/controllers/default.py'
p94
sg70
(dp95
sg76
I140
sg77
(dp96
I129
S''
sI130
S''
sI131
S'def call():'
p97
sI132
S'    """'
p98
sI133
S'    exposes services. for example:'
p99
sI134
S'    http://..../[app]/default/call/jsonrpc'
p100
sI135
S'    decorate with @services.jsonrpc the functions to expose'
p101
sI136
S'    supports xml, json, xmlrpc, jsonrpc, amfrpc, rss, csv'
p102
sI137
S'    """'
p103
sI138
S'    return service()'
p104
ssg89
S'()'
p105
sg91
S'<module>'
p106
sa(dp107
g68
S'/Users/Kaitaku/Documents/cs183/web2py/gluon/globals.py'
p108
sg70
(dp109
S'self'
p110
S'undefined'
p111
sS'f'
S'<function new_message>'
p112
ssg76
I417
sg77
(dp113
I416
S'        self._vars = None'
p114
sI417
S'        self._caller = lambda f: f()'
p115
sI418
S'        self._view_environment = None'
p116
sI419
S'        self._custom_commit = None'
p117
sI420
S'        self._custom_rollback = None'
p118
sI421
S"        self.generic_patterns = ['*']"
p119
sI412
S"        self.flash = ''            # used by the default view layout"
p120
sI413
S'        self.meta = Storage()      # used by web2py_ajax.html'
p121
sI414
S'        self.menu = []             # used by the default view layout'
p122
sI415
S'        self.files = []            # used by web2py_ajax.html'
p123
ssg89
S'(f=<function new_message>)'
p124
sg91
S'<lambda>'
p125
sa(dp126
g68
S'/Users/Kaitaku/Documents/cs183/web2py/applications/mixin/controllers/default.py'
p127
sg70
(dp128
S'global websocket_send'
p129
S'<function websocket_send>'
p130
sS'messageSent'
p131
S"'hi'"
p132
ssg76
I117
sg77
(dp133
I112
S'    form = SQLFORM(db.chat)'
p134
sI113
S'    # not working'
p135
sI114
S'    #db(Chat).author=auth.user.first_name'
p136
sI115
S'    messageSent = request.vars.your_message'
p137
sI116
S'    if form.accepts(request, formname=None):'
p138
sI117
S"        websocket_send('http://127.0.0.1:8888', messageSent, 'mykey', 'mygroup')"
p139
sI118
S'    elif form.errors:'
p140
sI119
S'        return TABLE(*[TR(k, v) for k, v in form.errors.items()])'
p141
sI120
S'    return (db)'
p142
sI121
S''
ssg89
S'()'
p143
sg91
S'new_message'
p144
sa(dp145
g68
S'/Users/Kaitaku/Documents/cs183/web2py/gluon/contrib/websocket_messaging.py'
p146
sg70
(dp147
S'url'
p148
S"'http://127.0.0.1:8888'"
p149
sS'global urllib'
p150
S"<module 'urllib' from '/System/Library/Framework...framework/Versions/2.7/lib/python2.7/urllib.pyc'>"
p151
sS'urllib.urlopen'
p152
S'<function urlopen>'
p153
sS'params'
p154
S"'message=hi&group=mygroup&signature=449e144c1659e80c2e66b8518db0e804'"
p155
sS'f'
g111
ssg76
I104
sg77
(dp156
I99
S''
sI100
S"def websocket_send(url, message, hmac_key=None, group='default'):"
p157
sI101
S"    sig = hmac_key and hmac.new(hmac_key, message).hexdigest() or ''"
p158
sI102
S'    params = urllib.urlencode('
p159
sI103
S"        {'message': message, 'signature': sig, 'group': group})"
p160
sI104
S'    f = urllib.urlopen(url, params)'
p161
sI105
S'    data = f.read()'
p162
sI106
S'    f.close()'
p163
sI107
S'    return data'
p164
sI108
S''
ssg89
S"(url='http://127.0.0.1:8888', message='hi', hmac_key='mykey', group='mygroup')"
p165
sg91
S'websocket_send'
p166
sa(dp167
g68
S'/System/Library/Frameworks/Python.framework/Versions/2.7/lib/python2.7/urllib.py'
p168
sg70
(dp169
S'url'
p170
S"'http://127.0.0.1:8888'"
p171
sS'opener'
p172
S'<gluon.contrib.autolinks.VimeoURLOpener instance>'
p173
sS'data'
p174
S"'message=hi&group=mygroup&signature=449e144c1659e80c2e66b8518db0e804'"
p175
sS'opener.open'
p176
S'<bound method VimeoURLOpener.open of <gluon.contrib.autolinks.VimeoURLOpener instance>>'
p177
ssg76
I89
sg77
(dp178
I84
S'    else:'
p179
sI85
S'        opener = _urlopener'
p180
sI86
S'    if data is None:'
p181
sI87
S'        return opener.open(url)'
p182
sI88
S'    else:'
p183
sI89
S'        return opener.open(url, data)'
p184
sI90
S'def urlretrieve(url, filename=None, reporthook=None, data=None, context=None):'
p185
sI91
S'    global _urlopener'
p186
sI92
S'    if context is not None:'
p187
sI93
S'        opener = FancyURLopener(context=context)'
p188
ssg89
S"(url='http://127.0.0.1:8888', data='message=hi&group=mygroup&signature=449e144c1659e80c2e66b8518db0e804', proxies=None, context=None)"
p189
sg91
S'urlopen'
p190
sa(dp191
g68
S'/System/Library/Frameworks/Python.framework/Versions/2.7/lib/python2.7/urllib.py'
p192
sg70
(dp193
S'url'
p194
S"'//127.0.0.1:8888'"
p195
sS'data'
p196
S"'message=hi&group=mygroup&signature=449e144c1659e80c2e66b8518db0e804'"
p197
sS'self'
p198
S'<gluon.contrib.autolinks.VimeoURLOpener instance>'
p199
sS'builtingetattr'
p200
S'<built-in function getattr>'
p201
sS'name'
p202
S"'open_http'"
p203
ssg76
I215
sg77
(dp204
I210
S'                return self.open_unknown(fullurl, data)'
p205
sI211
S'        try:'
p206
sI212
S'            if data is None:'
p207
sI213
S'                return getattr(self, name)(url)'
p208
sI214
S'            else:'
p209
sI215
S'                return getattr(self, name)(url, data)'
p210
sI216
S'        except socket.error, msg:'
p211
sI217
S"            raise IOError, ('socket error', msg), sys.exc_info()[2]"
p212
sI218
S''
sI219
S'    def open_unknown(self, fullurl, data=None):'
p213
ssg89
S"(self=<gluon.contrib.autolinks.VimeoURLOpener instance>, fullurl='http://127.0.0.1:8888', data='message=hi&group=mygroup&signature=449e144c1659e80c2e66b8518db0e804')"
p214
sg91
S'open'
p215
sa(dp216
g68
S'/System/Library/Frameworks/Python.framework/Versions/2.7/lib/python2.7/urllib.py'
p217
sg70
(dp218
S'h'
S'<httplib.HTTP instance>'
p219
sS'data'
p220
S"'message=hi&group=mygroup&signature=449e144c1659e80c2e66b8518db0e804'"
p221
sS'h.endheaders'
p222
S'<bound method HTTPConnection.endheaders of <httplib.HTTPConnection instance>>'
p223
ssg76
I350
sg77
(dp224
I352
S'        fp = h.getfile()'
p225
sI353
S'        if errcode == -1:'
p226
sI354
S'            if fp: fp.close()'
p227
sI345
S"            h.putrequest('GET', selector)"
p228
sI346
S"        if proxy_auth: h.putheader('Proxy-Authorization', 'Basic %s' % proxy_auth)"
p229
sI347
S"        if auth: h.putheader('Authorization', 'Basic %s' % auth)"
p230
sI348
S"        if realhost: h.putheader('Host', realhost)"
p231
sI349
S'        for args in self.addheaders: h.putheader(*args)'
p232
sI350
S'        h.endheaders(data)'
p233
sI351
S'        errcode, errmsg, headers = h.getreply()'
p234
ssg89
S"(self=<gluon.contrib.autolinks.VimeoURLOpener instance>, url='//127.0.0.1:8888', data='message=hi&group=mygroup&signature=449e144c1659e80c2e66b8518db0e804')"
p235
sg91
S'open_http'
p236
sa(dp237
g68
S'/System/Library/Frameworks/Python.framework/Versions/2.7/lib/python2.7/httplib.py'
p238
sg70
(dp239
S'message_body'
p240
S"'message=hi&group=mygroup&signature=449e144c1659e80c2e66b8518db0e804'"
p241
sS'self'
p242
S'<httplib.HTTPConnection instance>'
p243
sS'self._send_output'
p244
S'<bound method HTTPConnection._send_output of <httplib.HTTPConnection instance>>'
p245
ssg76
I1049
sg77
(dp246
I1044
S'        """'
p247
sI1045
S'        if self.__state == _CS_REQ_STARTED:'
p248
sI1046
S'            self.__state = _CS_REQ_SENT'
p249
sI1047
S'        else:'
p250
sI1048
S'            raise CannotSendHeader()'
p251
sI1049
S'        self._send_output(message_body)'
p252
sI1050
S''
sI1051
S'    def request(self, method, url, body=None, headers={}):'
p253
sI1052
S'        """Send a complete request to the server."""'
p254
sI1053
S'        self._send_request(method, url, body, headers)'
p255
ssg89
S"(self=<httplib.HTTPConnection instance>, message_body='message=hi&group=mygroup&signature=449e144c1659e80c2e66b8518db0e804')"
p256
sg91
S'endheaders'
p257
sa(dp258
g68
S'/System/Library/Frameworks/Python.framework/Versions/2.7/lib/python2.7/httplib.py'
p259
sg70
(dp260
S'msg'
p261
S"'POST / HTTP/1.0\\r\\nContent-Type: application/x-www...ygroup&signature=449e144c1659e80c2e66b8518db0e804'"
p262
sS'self'
p263
S'<httplib.HTTPConnection instance>'
p264
sS'self.send'
p265
S'<bound method HTTPConnection.send of <httplib.HTTPConnection instance>>'
p266
ssg76
I893
sg77
(dp267
I896
S'            #we must run the risk of Nagle'
p268
sI897
S'            self.send(message_body)'
p269
sI888
S'        # it will avoid performance problems caused by the interaction'
p270
sI889
S'        # between delayed ack and the Nagle algorithm.'
p271
sI890
S'        if isinstance(message_body, str):'
p272
sI891
S'            msg += message_body'
p273
sI892
S'            message_body = None'
p274
sI893
S'        self.send(msg)'
p275
sI894
S'        if message_body is not None:'
p276
sI895
S'            #message_body was not a string (i.e. it is a file) and'
p277
ssg89
S'(self=<httplib.HTTPConnection instance>, message_body=None)'
p278
sg91
S'_send_output'
p279
sa(dp280
g68
S'/System/Library/Frameworks/Python.framework/Versions/2.7/lib/python2.7/httplib.py'
p281
sg70
(dp282
S'self'
p283
S'<httplib.HTTPConnection instance>'
p284
sS'self.connect'
p285
S'<bound method HTTPConnection.connect of <httplib.HTTPConnection instance>>'
p286
ssg76
I855
sg77
(dp287
I850
S''
sI851
S'    def send(self, data):'
p288
sI852
S'        """Send `data\' to the server."""'
p289
sI853
S'        if self.sock is None:'
p290
sI854
S'            if self.auto_open:'
p291
sI855
S'                self.connect()'
p292
sI856
S'            else:'
p293
sI857
S'                raise NotConnected()'
p294
sI858
S''
sI859
S'        if self.debuglevel > 0:'
p295
ssg89
S"(self=<httplib.HTTPConnection instance>, data='POST / HTTP/1.0\\r\\nContent-Type: application/x-www...ygroup&signature=449e144c1659e80c2e66b8518db0e804')"
p296
sg91
S'send'
p297
sa(dp298
g68
S'/System/Library/Frameworks/Python.framework/Versions/2.7/lib/python2.7/httplib.py'
p299
sg70
(dp300
S'self.timeout'
p301
S'<object object>'
p302
sS'self'
p303
S'<httplib.HTTPConnection instance>'
p304
sS'self.source_address'
p305
S'None'
p306
ssg76
I832
sg77
(dp307
I832
S'                                           self.timeout, self.source_address)'
p308
sI833
S''
sI834
S'        if self._tunnel_host:'
p309
sI835
S'            self._tunnel()'
p310
sI836
S''
sI827
S''
sI828
S''
sI829
S'    def connect(self):'
p311
sI830
S'        """Connect to the host and port specified in __init__."""'
p312
sI831
S'        self.sock = self._create_connection((self.host,self.port),'
p313
ssg89
S'(self=<httplib.HTTPConnection instance>)'
p314
sg91
S'connect'
p315
sa(dp316
g68
S'/System/Library/Frameworks/Python.framework/Versions/2.7/lib/python2.7/socket.py'
p317
sg70
(dp318
S'err'
p319
S"error(61, 'Connection refused')"
p320
ssg76
I575
sg77
(dp321
I576
S'    else:'
p322
sI577
S'        raise error("getaddrinfo returns an empty list")'
p323
sI568
S''
sI569
S'        except error as _:'
p324
sI570
S'            err = _'
p325
sI571
S'            if sock is not None:'
p326
sI572
S'                sock.close()'
p327
sI573
S''
sI574
S'    if err is not None:'
p328
sI575
S'        raise err'
p329
ssg89
S"(address=('127.0.0.1', 8888), timeout=<object object>, source_address=None)"
p330
sg91
S'create_connection'
p331
sasS'pyver'
p332
S'Python 2.7.10: /usr/bin/python (prefix: /System/Library/Frameworks/Python.framework/Versions/2.7)'
p333
sS'session'
p334
g63
(S's\x8b\n\x00\x00<div><table><tr><td style="font-weight:bold;vertical-align:top;">auth</td><td style="vertical-align:top;">:</td><td><div><table><tr><td style="font-weight:bold;vertical-align:top;">expiration</td><td style="vertical-align:top;">:</td><td><div>3600</div></td></tr><tr><td style="font-weight:bold;vertical-align:top;">hmac_key</td><td style="vertical-align:top;">:</td><td><div>2539316f-5ec3-4160-b701-2776c0a777e2</div></td></tr><tr><td style="font-weight:bold;vertical-align:top;">last_visit</td><td style="vertical-align:top;">:</td><td><div>datetime.datetime(2017, 3, 4, 16, 24, 0, 196952)</div></td></tr><tr><td style="font-weight:bold;vertical-align:top;">remember_me</td><td style="vertical-align:top;">:</td><td><div>False</div></td></tr><tr><td style="font-weight:bold;vertical-align:top;">user</td><td style="vertical-align:top;">:</td><td><div><table><tr><td style="font-weight:bold;vertical-align:top;">dob</td><td style="vertical-align:top;">:</td><td><div>datetime.date(1994, 7, 10)</div></td></tr><tr><td style="font-weight:bold;vertical-align:top;">email</td><td style="vertical-align:top;">:</td><td><div>katakeda@ucsc.edu</div></td></tr><tr><td style="font-weight:bold;vertical-align:top;">first_name</td><td style="vertical-align:top;">:</td><td><div>Kaitaku</div></td></tr><tr><td style="font-weight:bold;vertical-align:top;">gender</td><td style="vertical-align:top;">:</td><td><div>Male</div></td></tr><tr><td style="font-weight:bold;vertical-align:top;">id</td><td style="vertical-align:top;">:</td><td><div>1L</div></td></tr><tr><td style="font-weight:bold;vertical-align:top;">last_name</td><td style="vertical-align:top;">:</td><td><div>Takeda</div></td></tr><tr><td style="font-weight:bold;vertical-align:top;">registration_id</td><td style="vertical-align:top;">:</td><td><div></div></td></tr><tr><td style="font-weight:bold;vertical-align:top;">registration_key</td><td style="vertical-align:top;">:</td><td><div></div></td></tr><tr><td style="font-weight:bold;vertical-align:top;">reset_password_key</td><td style="vertical-align:top;">:</td><td><div></div></td></tr><tr><td style="font-weight:bold;vertical-align:top;">username</td><td style="vertical-align:top;">:</td><td><div>katakeda</div></td></tr></table></div></td></tr><tr><td style="font-weight:bold;vertical-align:top;">user_groups</td><td style="vertical-align:top;">:</td><td><div><table><tr><td style="font-weight:bold;vertical-align:top;">1</td><td style="vertical-align:top;">:</td><td><div>Room_1</div></td></tr></table></div></td></tr></table></div></td></tr><tr><td style="font-weight:bold;vertical-align:top;">flash</td><td style="vertical-align:top;">:</td><td><div>None</div></td></tr></table></div>'
tRp335
sS'etype'
p336
S"<type 'exceptions.IOError'>"
p337
sS'date'
p338
S'Sat Mar  4 16:27:34 2017'
p339
sS'response'
p340
g63
(S's\x15%\x00\x00<div><table><tr><td style="font-weight:bold;vertical-align:top;">body</td><td style="vertical-align:top;">:</td><td><div>&lt;cStringIO.StringO object at 0x10cd82df8&gt;</div></td></tr><tr><td style="font-weight:bold;vertical-align:top;">cookies</td><td style="vertical-align:top;">:</td><td><div><table><tr><td style="font-weight:bold;vertical-align:top;">session_id_mixin</td><td style="vertical-align:top;">:</td><td><div>127.0.0.1-a33488bf-412a-463c-978b-d3fee6d16420<table><tr><td style="font-weight:bold;vertical-align:top;">comment</td><td style="vertical-align:top;">:</td><td><div></div></td></tr><tr><td style="font-weight:bold;vertical-align:top;">domain</td><td style="vertical-align:top;">:</td><td><div></div></td></tr><tr><td style="font-weight:bold;vertical-align:top;">expires</td><td style="vertical-align:top;">:</td><td><div></div></td></tr><tr><td style="font-weight:bold;vertical-align:top;">httponly</td><td style="vertical-align:top;">:</td><td><div></div></td></tr><tr><td style="font-weight:bold;vertical-align:top;">max-age</td><td style="vertical-align:top;">:</td><td><div></div></td></tr><tr><td style="font-weight:bold;vertical-align:top;">path</td><td style="vertical-align:top;">:</td><td><div>/</div></td></tr><tr><td style="font-weight:bold;vertical-align:top;">secure</td><td style="vertical-align:top;">:</td><td><div></div></td></tr><tr><td style="font-weight:bold;vertical-align:top;">version</td><td style="vertical-align:top;">:</td><td><div></div></td></tr></table></div></td></tr></table></div></td></tr><tr><td style="font-weight:bold;vertical-align:top;">delimiters</td><td style="vertical-align:top;">:</td><td><div><table><tr><td><div>{{</div></td></tr><tr><td><div>}}</div></td></tr></table></div></td></tr><tr><td style="font-weight:bold;vertical-align:top;">files</td><td style="vertical-align:top;">:</td><td><div><table></table></div></td></tr><tr><td style="font-weight:bold;vertical-align:top;">flash</td><td style="vertical-align:top;">:</td><td><div></div></td></tr><tr><td style="font-weight:bold;vertical-align:top;">form_label_separator</td><td style="vertical-align:top;">:</td><td><div></div></td></tr><tr><td style="font-weight:bold;vertical-align:top;">formstyle</td><td style="vertical-align:top;">:</td><td><div>bootstrap3_inline</div></td></tr><tr><td style="font-weight:bold;vertical-align:top;">generic_patterns</td><td style="vertical-align:top;">:</td><td><div><table><tr><td><div>*</div></td></tr></table></div></td></tr><tr><td style="font-weight:bold;vertical-align:top;">google_analytics_id</td><td style="vertical-align:top;">:</td><td><div>None</div></td></tr><tr><td style="font-weight:bold;vertical-align:top;">headers</td><td style="vertical-align:top;">:</td><td><div><table><tr><td style="font-weight:bold;vertical-align:top;">X-Powered-By</td><td style="vertical-align:top;">:</td><td><div>web2py</div></td></tr></table></div></td></tr><tr><td style="font-weight:bold;vertical-align:top;">logo</td><td style="vertical-align:top;">:</td><td><div><a class="navbar-brand" href="http://www.mixin.com/" id="mi-navbar-logo"><img src="/mixin/static/images/logo.png" width="65" /></a></div></td></tr><tr><td style="font-weight:bold;vertical-align:top;">menu</td><td style="vertical-align:top;">:</td><td><div><table><tr><td><div><table><tr><td><div>Home</div></td></tr><tr><td><div>False</div></td></tr><tr><td><div>/mixin/home</div></td></tr><tr><td><div><table></table></div></td></tr></table></div></td></tr><tr><td><div><table><tr><td><div>About</div></td></tr><tr><td><div>False</div></td></tr><tr><td><div>/mixin/about</div></td></tr></table></div></td></tr><tr><td><div><table><tr><td><div>Contact</div></td></tr><tr><td><div>False</div></td></tr><tr><td><div>/mixin/contact</div></td></tr></table></div></td></tr><tr><td><div><table><tr><td><div>Settings</div></td></tr><tr><td><div>False</div></td></tr><tr><td><div>/mixin/settings/profile</div></td></tr></table></div></td></tr><tr><td><div><table><tr><td><div>Team Members</div></td></tr><tr><td><div>False</div></td></tr><tr><td><div>#</div></td></tr><tr><td><div><table><tr><td><div><table><tr><td><div>Maximillian Brain</div></td></tr><tr><td><div>False</div></td></tr><tr><td><div>/mixin/mbrain</div></td></tr></table></div></td></tr><tr><td><div><li class="divider"></li></div></td></tr><tr><td><div><table><tr><td><div>Shanee Dinay</div></td></tr><tr><td><div>False</div></td></tr><tr><td><div>/mixin/sdinay</div></td></tr></table></div></td></tr><tr><td><div><li class="divider"></li></div></td></tr><tr><td><div><table><tr><td><div>Ryan Ho</div></td></tr><tr><td><div>False</div></td></tr><tr><td><div>/mixin/ryanho</div></td></tr></table></div></td></tr><tr><td><div><li class="divider"></li></div></td></tr><tr><td><div><table><tr><td><div>Jinlin Li</div></td></tr><tr><td><div>False</div></td></tr><tr><td><div>/mixin/jli306</div></td></tr></table></div></td></tr><tr><td><div><li class="divider"></li></div></td></tr><tr><td><div><table><tr><td><div>Kaitaku Takeda</div></td></tr><tr><td><div>False</div></td></tr><tr><td><div>/mixin/katakeda</div></td></tr></table></div></td></tr><tr><td><div><li class="divider"></li></div></td></tr><tr><td><div><table><tr><td><div>Cameron Wheeler</div></td></tr><tr><td><div>False</div></td></tr><tr><td><div>/mixin/cdwheele</div></td></tr></table></div></td></tr></table></div></td></tr></table></div></td></tr></table></div></td></tr><tr><td style="font-weight:bold;vertical-align:top;">meta</td><td style="vertical-align:top;">:</td><td><div><table><tr><td style="font-weight:bold;vertical-align:top;">author</td><td style="vertical-align:top;">:</td><td><div>Your Name &lt;you@example.com&gt;</div></td></tr><tr><td style="font-weight:bold;vertical-align:top;">description</td><td style="vertical-align:top;">:</td><td><div>a cool new app</div></td></tr><tr><td style="font-weight:bold;vertical-align:top;">generator</td><td style="vertical-align:top;">:</td><td><div>Web2py Web Framework</div></td></tr><tr><td style="font-weight:bold;vertical-align:top;">keywords</td><td style="vertical-align:top;">:</td><td><div><table><tr><td><div>web2py</div></td></tr><tr><td><div>python</div></td></tr><tr><td><div>framework</div></td></tr></table></div></td></tr></table></div></td></tr><tr><td style="font-weight:bold;vertical-align:top;">models_to_run</td><td style="vertical-align:top;">:</td><td><div><table><tr><td><div>^\\w+\\.py$</div></td></tr><tr><td><div>^default/\\w+\\.py$</div></td></tr><tr><td><div>^default/new_message/\\w+\\.py$</div></td></tr></table></div></td></tr><tr><td style="font-weight:bold;vertical-align:top;">postprocessing</td><td style="vertical-align:top;">:</td><td><div><table></table></div></td></tr><tr><td style="font-weight:bold;vertical-align:top;">session_client</td><td style="vertical-align:top;">:</td><td><div>127.0.0.1</div></td></tr><tr><td style="font-weight:bold;vertical-align:top;">session_cookie_compression_level</td><td style="vertical-align:top;">:</td><td><div>None</div></td></tr><tr><td style="font-weight:bold;vertical-align:top;">session_cookie_expires</td><td style="vertical-align:top;">:</td><td><div>None</div></td></tr><tr><td style="font-weight:bold;vertical-align:top;">session_data_name</td><td style="vertical-align:top;">:</td><td><div>session_data_mixin</div></td></tr><tr><td style="font-weight:bold;vertical-align:top;">session_file</td><td style="vertical-align:top;">:</td><td><div>&lt;open file &#x27;/Users/Kaitaku/Documents/cs183/web2py/applications/mixin/sessions/0df/017/127.0.0.1-a33488bf-412a-463c-978b-d3fee6d16420&#x27;, mode &#x27;rb+&#x27; at 0x106845540&gt;</div></td></tr><tr><td style="font-weight:bold;vertical-align:top;">session_filename</td><td style="vertical-align:top;">:</td><td><div>/Users/Kaitaku/Documents/cs183/web2py/applications/mixin/sessions/127.0.0.1-a33488bf-412a-463c-978b-d3fee6d16420</div></td></tr><tr><td style="font-weight:bold;vertical-align:top;">session_hash</td><td style="vertical-align:top;">:</td><td><div>7fb6ebd97784bfbd04d804649b2e5427</div></td></tr><tr><td style="font-weight:bold;vertical-align:top;">session_id</td><td style="vertical-align:top;">:</td><td><div>127.0.0.1-a33488bf-412a-463c-978b-d3fee6d16420</div></td></tr><tr><td style="font-weight:bold;vertical-align:top;">session_id_name</td><td style="vertical-align:top;">:</td><td><div>session_id_mixin</div></td></tr><tr><td style="font-weight:bold;vertical-align:top;">session_locked</td><td style="vertical-align:top;">:</td><td><div>True</div></td></tr><tr><td style="font-weight:bold;vertical-align:top;">session_masterapp</td><td style="vertical-align:top;">:</td><td><div>mixin</div></td></tr><tr><td style="font-weight:bold;vertical-align:top;">session_new</td><td style="vertical-align:top;">:</td><td><div>False</div></td></tr><tr><td style="font-weight:bold;vertical-align:top;">session_storage_type</td><td style="vertical-align:top;">:</td><td><div>file</div></td></tr><tr><td style="font-weight:bold;vertical-align:top;">status</td><td style="vertical-align:top;">:</td><td><div>200</div></td></tr><tr><td style="font-weight:bold;vertical-align:top;">subtitle</td><td style="vertical-align:top;">:</td><td><div></div></td></tr><tr><td style="font-weight:bold;vertical-align:top;">title</td><td style="vertical-align:top;">:</td><td><div>Mixin</div></td></tr><tr><td style="font-weight:bold;vertical-align:top;">view</td><td style="vertical-align:top;">:</td><td><div>default/new_message.html</div></td></tr></table></div>'
tRp341
sS'locals'
p342
(dp343
S'err'
p344
S"error(61, 'Connection refused')"
p345
sS'af'
p346
S'2'
sS'canonname'
p347
S"''"
p348
sS'proto'
p349
S'6'
sS'sock'
p350
S'<socket._socketobject object>'
p351
sS'host'
p352
S"'127.0.0.1'"
p353
sS'_'
S"error(61, 'Connection refused')"
p354
sS'timeout'
p355
S'<object object>'
p356
sS'res'
p357
S"(2, 1, 6, '', ('127.0.0.1', 8888))"
p358
sS'socktype'
p359
S'1'
sS'sa'
p360
S"('127.0.0.1', 8888)"
p361
sS'source_address'
p362
S'None'
p363
sS'port'
p364
S'8888'
p365
sS'address'
p366
S"('127.0.0.1', 8888)"
p367
sssS'traceback'
p368
S'Traceback (most recent call last):\n  File "/Users/Kaitaku/Documents/cs183/web2py/gluon/restricted.py", line 227, in restricted\n    exec ccode in environment\n  File "/Users/Kaitaku/Documents/cs183/web2py/applications/mixin/controllers/default.py", line 140, in <module>\n  File "/Users/Kaitaku/Documents/cs183/web2py/gluon/globals.py", line 417, in <lambda>\n    self._caller = lambda f: f()\n  File "/Users/Kaitaku/Documents/cs183/web2py/applications/mixin/controllers/default.py", line 117, in new_message\n    websocket_send(\'http://127.0.0.1:8888\', messageSent, \'mykey\', \'mygroup\')\n  File "/Users/Kaitaku/Documents/cs183/web2py/gluon/contrib/websocket_messaging.py", line 104, in websocket_send\n    f = urllib.urlopen(url, params)\n  File "/System/Library/Frameworks/Python.framework/Versions/2.7/lib/python2.7/urllib.py", line 89, in urlopen\n    return opener.open(url, data)\n  File "/System/Library/Frameworks/Python.framework/Versions/2.7/lib/python2.7/urllib.py", line 215, in open\n    return getattr(self, name)(url, data)\n  File "/System/Library/Frameworks/Python.framework/Versions/2.7/lib/python2.7/urllib.py", line 350, in open_http\n    h.endheaders(data)\n  File "/System/Library/Frameworks/Python.framework/Versions/2.7/lib/python2.7/httplib.py", line 1049, in endheaders\n    self._send_output(message_body)\n  File "/System/Library/Frameworks/Python.framework/Versions/2.7/lib/python2.7/httplib.py", line 893, in _send_output\n    self.send(msg)\n  File "/System/Library/Frameworks/Python.framework/Versions/2.7/lib/python2.7/httplib.py", line 855, in send\n    self.connect()\n  File "/System/Library/Frameworks/Python.framework/Versions/2.7/lib/python2.7/httplib.py", line 832, in connect\n    self.timeout, self.source_address)\n  File "/System/Library/Frameworks/Python.framework/Versions/2.7/lib/python2.7/socket.py", line 575, in create_connection\n    raise err\nIOError: [Errno socket error] [Errno 61] Connection refused\n'
p369
s.